target datalayout = "e-m:e-p270:32:32-p271:32:32-p272:64:64-i64:64-i128:128-f80:128-n8:16:32:64-S128"
target triple = "x86_64-pc-linux-gnu"

; Function Attrs: nounwind uwtable
define internal double @trc_arib_std_b67_inv(double noundef %0) #0 {
  %2 = alloca double, align 8
  %3 = alloca double, align 8
  %4 = alloca double, align 8
  %5 = alloca double, align 8
  store double %0, ptr %2, align 8, !tbaa !27
  call void @llvm.lifetime.start.p0(i64 8, ptr %3) #7
  store double 0x3FC6E3FE014D320D, ptr %3, align 8, !tbaa !27
  call void @llvm.lifetime.start.p0(i64 8, ptr %4) #7
  store double 0x3FD23803FD659BE6, ptr %4, align 8, !tbaa !27
  call void @llvm.lifetime.start.p0(i64 8, ptr %5) #7
  store double 0x3FE1EAC9E840F18D, ptr %5, align 8, !tbaa !27
  %6 = load double, ptr %2, align 8, !tbaa !27
  %7 = fcmp nsz ogt double 0.000000e+00, %6
  br i1 %7, label %8, label %9

8:                                                ; preds = %1
  br label %26

9:                                                ; preds = %1
  %10 = load double, ptr %2, align 8, !tbaa !27
  %11 = fcmp nsz ole double %10, 5.000000e-01
  br i1 %11, label %12, label %17

12:                                               ; preds = %9
  %13 = load double, ptr %2, align 8, !tbaa !27
  %14 = load double, ptr %2, align 8, !tbaa !27
  %15 = fmul nsz double %13, %14
  %16 = fdiv nsz double %15, 3.000000e+00
  br label %24

17:                                               ; preds = %9
  %18 = load double, ptr %2, align 8, !tbaa !27
  %19 = fsub nsz double %18, 0x3FE1EAC9E840F18D
  %20 = fdiv nsz double %19, 0x3FC6E3FE014D320D
  %21 = call nsz double @llvm.exp.f64(double %20)
  %22 = fadd nsz double %21, 0x3FD23803FD659BE6
  %23 = fdiv nsz double %22, 1.200000e+01
  br label %24

24:                                               ; preds = %17, %12
  %25 = phi nsz double [ %16, %12 ], [ %23, %17 ]
  br label %26

26:                                               ; preds = %24, %8
  %27 = phi nsz double [ 0.000000e+00, %8 ], [ %25, %24 ]
  call void @llvm.lifetime.end.p0(i64 8, ptr %5) #7
  call void @llvm.lifetime.end.p0(i64 8, ptr %4) #7
  call void @llvm.lifetime.end.p0(i64 8, ptr %3) #7
  ret double %27
}