; Function Attrs: mustprogress nofree norecurse nosync nounwind willreturn memory(none) uwtable
define internal double @trc_arib_std_b67_inv(double noundef %0) #0 {
  %2 = fcmp nsz olt double %0, 0.000000e+00
  br i1 %2, label %14, label %3

3:                                                ; preds = %1
  %4 = fcmp nsz ugt double %0, 5.000000e-01
  br i1 %4, label %8, label %5

5:                                                ; preds = %3
  %6 = fmul nsz double %0, %0
  %7 = fdiv nsz double %6, 3.000000e+00
  br label %14

8:                                                ; preds = %3
  %9 = fadd nsz double %0, 0xBFE1EAC9E840F18D
  %10 = fdiv nsz double %9, 0x3FC6E3FE014D320D
  %11 = tail call nsz double @llvm.exp.f64(double %10)
  %12 = fadd nsz double %11, 0x3FD23803FD659BE6
  %13 = fdiv nsz double %12, 1.200000e+01
  br label %14

14:                                               ; preds = %5, %8, %1
  %15 = phi nsz double [ 0.000000e+00, %1 ], [ %7, %5 ], [ %13, %8 ]
  ret double %15
}